target datalayout = "e-m:e-p270:32:32-p271:32:32-p272:64:64-i64:64-i128:128-f80:128-n8:16:32:64-S128"
target triple = "x86_64-pc-linux-gnu"

; Function Attrs: mustprogress uwtable
define ptr @cvQueryFrame(ptr noundef %0) #4 {
  %2 = alloca ptr, align 8
  %3 = alloca ptr, align 8
  store ptr %0, ptr %3, align 8, !tbaa !36
  %4 = load ptr, ptr %3, align 8, !tbaa !36
  %5 = icmp ne ptr %4, null
  br i1 %5, label %7, label %6

6:                                                ; preds = %1
  store ptr null, ptr %2, align 8
  br label %20

7:                                                ; preds = %1
  %8 = load ptr, ptr %3, align 8, !tbaa !36
  %9 = load ptr, ptr %8, align 8, !tbaa !18
  %10 = getelementptr inbounds ptr, ptr %9, i64 4
  %11 = load ptr, ptr %10, align 8
  %12 = call noundef zeroext i1 %11(ptr noundef nonnull align 8 dereferenceable(8) %8)
  br i1 %12, label %14, label %13

13:                                               ; preds = %7
  store ptr null, ptr %2, align 8
  br label %20

14:                                               ; preds = %7
  %15 = load ptr, ptr %3, align 8, !tbaa !36
  %16 = load ptr, ptr %15, align 8, !tbaa !18
  %17 = getelementptr inbounds ptr, ptr %16, i64 5
  %18 = load ptr, ptr %17, align 8
  %19 = call noundef ptr %18(ptr noundef nonnull align 8 dereferenceable(8) %15, i32 noundef 0)
  store ptr %19, ptr %2, align 8
  br label %20

20:                                               ; preds = %14, %13, %6
  %21 = load ptr, ptr %2, align 8
  ret ptr %21
}