; Function Attrs: mustprogress uwtable
define noundef ptr @cvQueryFrame(ptr noundef %0) local_unnamed_addr #3 {
  %.not = icmp eq ptr %0, null
  br i1 %.not, label %12, label %2

2:                                                ; preds = %1
  %3 = load ptr, ptr %0, align 8, !tbaa !30
  %4 = getelementptr inbounds nuw i8, ptr %3, i64 32
  %5 = load ptr, ptr %4, align 8
  %6 = tail call noundef zeroext i1 %5(ptr noundef nonnull align 8 dereferenceable(8) %0)
  br i1 %6, label %7, label %12

7:                                                ; preds = %2
  %8 = load ptr, ptr %0, align 8, !tbaa !30
  %9 = getelementptr inbounds nuw i8, ptr %8, i64 40
  %10 = load ptr, ptr %9, align 8
  %11 = tail call noundef ptr %10(ptr noundef nonnull align 8 dereferenceable(8) %0, i32 noundef 0)
  br label %12

12:                                               ; preds = %2, %1, %7
  %.0 = phi ptr [ %11, %7 ], [ null, %1 ], [ null, %2 ]
  ret ptr %.0
}